target datalayout = "e-m:e-p270:32:32-p271:32:32-p272:64:64-i64:64-i128:128-f80:128-n8:16:32:64-S128"
target triple = "x86_64-pc-linux-gnu"

%"class.clang::SemaBase" = type { ptr }
%"class.llvm::ArrayRef" = type { ptr, i64 }

; Function Attrs: mustprogress nounwind uwtable
define linkonce_odr hidden noundef ptr @_ZNK4llvm8ArrayRefIiE3endEv(ptr noundef nonnull align 8 dereferenceable(16) %0) #0 comdat align 2 {
  %2 = alloca ptr, align 8
  store ptr %0, ptr %2, align 8
  %3 = load ptr, ptr %2, align 8
  %4 = getelementptr inbounds nuw %"class.llvm::ArrayRef", ptr %3, i32 0, i32 0
  %5 = load ptr, ptr %4, align 8
  %6 = getelementptr inbounds nuw %"class.llvm::ArrayRef", ptr %3, i32 0, i32 1
  %7 = load i64, ptr %6, align 8
  %8 = getelementptr inbounds i32, ptr %5, i64 %7
  ret ptr %8
}

; Function Attrs: mustprogress nounwind uwtable
define linkonce_odr hidden noundef ptr @_ZNK4llvm8ArrayRefIiE5beginEv(ptr noundef nonnull align 8 dereferenceable(16) %0) #0 comdat align 2 {
  %2 = alloca ptr, align 8
  store ptr %0, ptr %2, align 8
  %3 = load ptr, ptr %2, align 8
  %4 = getelementptr inbounds nuw %"class.llvm::ArrayRef", ptr %3, i32 0, i32 0
  %5 = load ptr, ptr %4, align 8
  ret ptr %5
}

; Function Attrs: mustprogress nounwind uwtable
define dso_local noundef zeroext i1 @_ZN5clang7SemaX8630CheckBuiltinTileArgumentsRangeEPNS_8CallExprEN4llvm8ArrayRefIiEE(ptr noundef nonnull align 8 dereferenceable(8) %0, ptr noundef %1, ptr %2, i64 %3) #0 align 2 {
  %5 = alloca i1, align 1
  %6 = alloca %"class.llvm::ArrayRef", align 8
  %7 = alloca ptr, align 8
  %8 = alloca ptr, align 8
  %9 = alloca ptr, align 8
  %10 = alloca ptr, align 8
  %11 = alloca ptr, align 8
  %12 = alloca i32, align 4
  %13 = getelementptr inbounds nuw { ptr, i64 }, ptr %6, i32 0, i32 0
  store ptr %2, ptr %13, align 8
  %14 = getelementptr inbounds nuw { ptr, i64 }, ptr %6, i32 0, i32 1
  store i64 %3, ptr %14, align 8
  store ptr %0, ptr %7, align 8
  store ptr %1, ptr %8, align 8
  %15 = load ptr, ptr %7, align 8
  store ptr %6, ptr %9, align 8
  %16 = load ptr, ptr %9, align 8
  %17 = call noundef ptr @_ZNK4llvm8ArrayRefIiE5beginEv(ptr noundef nonnull align 8 dereferenceable(16) %16)
  store ptr %17, ptr %10, align 8
  %18 = load ptr, ptr %9, align 8
  %19 = call noundef ptr @_ZNK4llvm8ArrayRefIiE3endEv(ptr noundef nonnull align 8 dereferenceable(16) %18)
  store ptr %19, ptr %11, align 8
  br label %20

20:                                               ; preds = %34, %4
  %21 = load ptr, ptr %10, align 8
  %22 = load ptr, ptr %11, align 8
  %23 = icmp ne ptr %21, %22
  br i1 %23, label %24, label %37

24:                                               ; preds = %20
  %25 = load ptr, ptr %10, align 8
  %26 = load i32, ptr %25, align 4
  store i32 %26, ptr %12, align 4
  %27 = getelementptr inbounds nuw %"class.clang::SemaBase", ptr %15, i32 0, i32 0
  %28 = load ptr, ptr %27, align 8
  %29 = load ptr, ptr %8, align 8
  %30 = load i32, ptr %12, align 4
  %31 = call noundef zeroext i1 @_ZN5clang4Sema23BuiltinConstantArgRangeEPNS_8CallExprEiiib(ptr noundef nonnull align 8 dereferenceable(17560) %28, ptr noundef %29, i32 noundef %30, i32 noundef 0, i32 noundef 7, i1 noundef zeroext true)
  br i1 %31, label %32, label %33

32:                                               ; preds = %24
  store i1 true, ptr %5, align 1
  br label %38

33:                                               ; preds = %24
  br label %34

34:                                               ; preds = %33
  %35 = load ptr, ptr %10, align 8
  %36 = getelementptr inbounds i32, ptr %35, i32 1
  store ptr %36, ptr %10, align 8
  br label %20

37:                                               ; preds = %20
  store i1 false, ptr %5, align 1
  br label %38

38:                                               ; preds = %37, %32
  %39 = load i1, ptr %5, align 1
  ret i1 %39
}

; Function Attrs: mustprogress nounwind uwtable
define dso_local noundef zeroext i1 @_ZN5clang7SemaX8633CheckBuiltinTileRangeAndDuplicateEPNS_8CallExprEN4llvm8ArrayRefIiEE(ptr noundef nonnull align 8 dereferenceable(8) %0, ptr noundef %1, ptr %2, i64 %3) #0 align 2 {
  %5 = alloca %"class.llvm::ArrayRef", align 8
  %6 = alloca ptr, align 8
  %7 = alloca ptr, align 8
  %8 = alloca %"class.llvm::ArrayRef", align 8
  %9 = alloca %"class.llvm::ArrayRef", align 8
  %10 = getelementptr inbounds nuw { ptr, i64 }, ptr %5, i32 0, i32 0
  store ptr %2, ptr %10, align 8
  %11 = getelementptr inbounds nuw { ptr, i64 }, ptr %5, i32 0, i32 1
  store i64 %3, ptr %11, align 8
  store ptr %0, ptr %6, align 8
  store ptr %1, ptr %7, align 8
  %12 = load ptr, ptr %6, align 8
  %13 = load ptr, ptr %7, align 8
  call void @llvm.memcpy.p0.p0.i64(ptr align 8 %8, ptr align 8 %5, i64 16, i1 false)
  %14 = getelementptr inbounds nuw { ptr, i64 }, ptr %8, i32 0, i32 0
  %15 = load ptr, ptr %14, align 8
  %16 = getelementptr inbounds nuw { ptr, i64 }, ptr %8, i32 0, i32 1
  %17 = load i64, ptr %16, align 8
  %18 = call noundef zeroext i1 @_ZN5clang7SemaX8630CheckBuiltinTileArgumentsRangeEPNS_8CallExprEN4llvm8ArrayRefIiEE(ptr noundef nonnull align 8 dereferenceable(8) %12, ptr noundef %13, ptr %15, i64 %17)
  br i1 %18, label %26, label %19

19:                                               ; preds = %4
  %20 = load ptr, ptr %7, align 8
  call void @llvm.memcpy.p0.p0.i64(ptr align 8 %9, ptr align 8 %5, i64 16, i1 false)
  %21 = getelementptr inbounds nuw { ptr, i64 }, ptr %9, i32 0, i32 0
  %22 = load ptr, ptr %21, align 8
  %23 = getelementptr inbounds nuw { ptr, i64 }, ptr %9, i32 0, i32 1
  %24 = load i64, ptr %23, align 8
  %25 = call noundef zeroext i1 @_ZN5clang7SemaX8625CheckBuiltinTileDuplicateEPNS_8CallExprEN4llvm8ArrayRefIiEE(ptr noundef nonnull align 8 dereferenceable(8) %12, ptr noundef %20, ptr %22, i64 %24)
  br label %26

26:                                               ; preds = %19, %4
  %27 = phi i1 [ true, %4 ], [ %25, %19 ]
  ret i1 %27
}