; Function Attrs: mustprogress nounwind uwtable
define dso_local noundef zeroext i1 @_ZN5clang7SemaX8633CheckBuiltinTileRangeAndDuplicateEPNS_8CallExprEN4llvm8ArrayRefIiEE(ptr noundef nonnull align 8 dereferenceable(8) %0, ptr noundef %1, ptr %2, i64 %3) local_unnamed_addr #0 align 2 {
  %5 = getelementptr inbounds i32, ptr %2, i64 %3
  %.not11.not.i = icmp eq i64 %3, 0
  br i1 %.not11.not.i, label %.loopexit, label %.lr.ph.i

6:                                                ; preds = %.lr.ph.i
  %7 = getelementptr inbounds i8, ptr %.0912.i, i64 4
  %.not.not.i = icmp eq ptr %7, %5
  br i1 %.not.not.i, label %.loopexit, label %.lr.ph.i

.lr.ph.i:                                         ; preds = %4, %6
  %.0912.i = phi ptr [ %7, %6 ], [ %2, %4 ]
  %8 = load i32, ptr %.0912.i, align 4
  %9 = load ptr, ptr %0, align 8
  %10 = tail call noundef zeroext i1 @_ZN5clang4Sema23BuiltinConstantArgRangeEPNS_8CallExprEiiib(ptr noundef nonnull align 8 dereferenceable(17560) %9, ptr noundef %1, i32 noundef %8, i32 noundef 0, i32 noundef 7, i1 noundef zeroext true) #14
  br i1 %10, label %_ZN5clang7SemaX8630CheckBuiltinTileArgumentsRangeEPNS_8CallExprEN4llvm8ArrayRefIiEE.exit, label %6

.loopexit:                                        ; preds = %6, %4
  %11 = tail call noundef zeroext i1 @_ZN5clang7SemaX8625CheckBuiltinTileDuplicateEPNS_8CallExprEN4llvm8ArrayRefIiEE(ptr noundef nonnull align 8 dereferenceable(8) %0, ptr noundef %1, ptr %2, i64 %3)
  br label %_ZN5clang7SemaX8630CheckBuiltinTileArgumentsRangeEPNS_8CallExprEN4llvm8ArrayRefIiEE.exit

_ZN5clang7SemaX8630CheckBuiltinTileArgumentsRangeEPNS_8CallExprEN4llvm8ArrayRefIiEE.exit: ; preds = %.lr.ph.i, %.loopexit
  %12 = phi i1 [ %11, %.loopexit ], [ true, %.lr.ph.i ]
  ret i1 %12
}